target datalayout = "e-m:e-p270:32:32-p271:32:32-p272:64:64-i64:64-i128:128-f80:128-n8:16:32:64-S128"
target triple = "x86_64-unknown-linux-gnu"

%class.func_decl_dependencies = type { ptr, %class.obj_map.62 }
%class.obj_map.62 = type { %class.core_hashtable.63 }
%class.core_hashtable.63 = type <{ ptr, i32, i32, i32, [4 x i8] }>
%class.ptr_vector.46 = type { %class.vector.47 }
%class.vector.47 = type { ptr }
%class.ptr_vector = type { %class.vector.3 }
%class.vector.3 = type { ptr }
%class.ref_vector = type { %class.ref_vector_core }
%class.ref_vector_core = type { %class.ref_manager_wrapper, %class.ptr_vector }
%class.ref_manager_wrapper = type { ptr }
%"class.smt::model_finder" = type { %class.quantifier2macro_infos, ptr, ptr, %class.scoped_ptr.296, %class.scoped_ptr.297, %class.obj_map.298, %class.ptr_vector.46, %class.func_decl_dependencies, %class.svector.303, %class.ref_vector }
%class.quantifier2macro_infos = type { ptr }
%class.scoped_ptr.296 = type { ptr }
%class.scoped_ptr.297 = type { ptr }
%class.obj_map.298 = type { %class.core_hashtable.299 }
%class.core_hashtable.299 = type <{ ptr, i32, i32, i32, [4 x i8] }>
%class.svector.303 = type { %class.vector.304 }
%class.vector.304 = type { ptr }
%class.simple_macro_solver = type { %class.base_macro_solver }
%class.base_macro_solver = type { ptr, ptr, ptr, ptr }

@_ZTV19simple_macro_solver = external unnamed_addr constant { [5 x ptr] }, align 8
@_ZTV17base_macro_solver = linkonce_odr hidden unnamed_addr constant { [5 x ptr] } { [5 x ptr] [ptr null, ptr @_ZTI17base_macro_solver, ptr @__cxa_pure_virtual, ptr @_ZN17base_macro_solverD2Ev, ptr @_ZN17base_macro_solverD0Ev] }, comdat, align 8

; Function Attrs: mustprogress nounwind uwtable
define linkonce_odr hidden void @_ZN17base_macro_solverD2Ev(ptr noundef nonnull align 8 dereferenceable(32) %this) unnamed_addr #4 comdat align 2 {
entry:
  %this.addr = alloca ptr, align 8
  store ptr %this, ptr %this.addr, align 8
  ret void
}

; Function Attrs: mustprogress nounwind uwtable
define linkonce_odr hidden void @_ZN17base_macro_solverC2ER11ast_managerR22quantifier2macro_infos(ptr noundef nonnull align 8 dereferenceable(32) %this, ptr noundef nonnull align 8 dereferenceable(976) %m, ptr noundef nonnull align 8 dereferenceable(8) %q2i) unnamed_addr #4 comdat align 2 {
entry:
  %this.addr = alloca ptr, align 8
  %m.addr = alloca ptr, align 8
  %q2i.addr = alloca ptr, align 8
  store ptr %this, ptr %this.addr, align 8
  store ptr %m, ptr %m.addr, align 8
  store ptr %q2i, ptr %q2i.addr, align 8
  %this1 = load ptr, ptr %this.addr, align 8
  store ptr getelementptr inbounds ({ [5 x ptr] }, ptr @_ZTV17base_macro_solver, i32 0, i32 0, i32 2), ptr %this1, align 8
  %m2 = getelementptr inbounds %class.base_macro_solver, ptr %this1, i32 0, i32 1
  %0 = load ptr, ptr %m.addr, align 8
  store ptr %0, ptr %m2, align 8
  %m_q2info = getelementptr inbounds %class.base_macro_solver, ptr %this1, i32 0, i32 2
  %1 = load ptr, ptr %q2i.addr, align 8
  store ptr %1, ptr %m_q2info, align 8
  %m_model = getelementptr inbounds %class.base_macro_solver, ptr %this1, i32 0, i32 3
  store ptr null, ptr %m_model, align 8
  ret void
}

; Function Attrs: mustprogress nounwind uwtable
define linkonce_odr hidden void @_ZN19simple_macro_solverD2Ev(ptr noundef nonnull align 8 dereferenceable(32) %this) unnamed_addr #4 comdat align 2 {
entry:
  %this.addr = alloca ptr, align 8
  store ptr %this, ptr %this.addr, align 8
  %this1 = load ptr, ptr %this.addr, align 8
  call void @_ZN17base_macro_solverD2Ev(ptr noundef nonnull align 8 dereferenceable(32) %this1) #3
  ret void
}

; Function Attrs: mustprogress uwtable
define linkonce_odr hidden void @_ZN19simple_macro_solverC2ER11ast_managerR22quantifier2macro_infos(ptr noundef nonnull align 8 dereferenceable(32) %this, ptr noundef nonnull align 8 dereferenceable(976) %m, ptr noundef nonnull align 8 dereferenceable(8) %q2i) unnamed_addr #5 comdat align 2 {
entry:
  %this.addr = alloca ptr, align 8
  %m.addr = alloca ptr, align 8
  %q2i.addr = alloca ptr, align 8
  store ptr %this, ptr %this.addr, align 8
  store ptr %m, ptr %m.addr, align 8
  store ptr %q2i, ptr %q2i.addr, align 8
  %this1 = load ptr, ptr %this.addr, align 8
  %0 = load ptr, ptr %m.addr, align 8
  %1 = load ptr, ptr %q2i.addr, align 8
  call void @_ZN17base_macro_solverC2ER11ast_managerR22quantifier2macro_infos(ptr noundef nonnull align 8 dereferenceable(32) %this1, ptr noundef nonnull align 8 dereferenceable(976) %0, ptr noundef nonnull align 8 dereferenceable(8) %1)
  store ptr getelementptr inbounds ({ [5 x ptr] }, ptr @_ZTV19simple_macro_solver, i32 0, i32 0, i32 2), ptr %this1, align 8
  ret void
}

; Function Attrs: mustprogress uwtable
define hidden void @_ZN3smt12model_finder21process_simple_macrosER10ptr_vectorI10quantifierES4_P11proto_model(ptr noundef nonnull align 8 dereferenceable(128) %this, ptr noundef nonnull align 8 dereferenceable(8) %qs, ptr noundef nonnull align 8 dereferenceable(8) %residue, ptr noundef %mdl) #5 align 2 personality ptr @__gxx_personality_v0 {
entry:
  %this.addr = alloca ptr, align 8
  %qs.addr = alloca ptr, align 8
  %residue.addr = alloca ptr, align 8
  %mdl.addr = alloca ptr, align 8
  %sms = alloca %class.simple_macro_solver, align 8
  %exn.slot = alloca ptr, align 8
  %ehselector.slot = alloca i32, align 4
  store ptr %this, ptr %this.addr, align 8
  store ptr %qs, ptr %qs.addr, align 8
  store ptr %residue, ptr %residue.addr, align 8
  store ptr %mdl, ptr %mdl.addr, align 8
  %this1 = load ptr, ptr %this.addr, align 8
  %m = getelementptr inbounds %"class.smt::model_finder", ptr %this1, i32 0, i32 1
  %0 = load ptr, ptr %m, align 8
  call void @_ZN19simple_macro_solverC2ER11ast_managerR22quantifier2macro_infos(ptr noundef nonnull align 8 dereferenceable(32) %sms, ptr noundef nonnull align 8 dereferenceable(976) %0, ptr noundef nonnull align 8 dereferenceable(8) %this1)
  %1 = load ptr, ptr %mdl.addr, align 8
  %2 = load ptr, ptr %qs.addr, align 8
  %3 = load ptr, ptr %residue.addr, align 8
  invoke void @_ZN17base_macro_solverclER10model_coreR10ptr_vectorI10quantifierES5_(ptr noundef nonnull align 8 dereferenceable(32) %sms, ptr noundef nonnull align 8 dereferenceable(96) %1, ptr noundef nonnull align 8 dereferenceable(8) %2, ptr noundef nonnull align 8 dereferenceable(8) %3)
          to label %invoke.cont unwind label %lpad

invoke.cont:                                      ; preds = %entry
  call void @_ZN19simple_macro_solverD2Ev(ptr noundef nonnull align 8 dereferenceable(32) %sms) #3
  ret void

lpad:                                             ; preds = %entry
  %4 = landingpad { ptr, i32 }
          cleanup
  %5 = extractvalue { ptr, i32 } %4, 0
  store ptr %5, ptr %exn.slot, align 8
  %6 = extractvalue { ptr, i32 } %4, 1
  store i32 %6, ptr %ehselector.slot, align 4
  call void @_ZN19simple_macro_solverD2Ev(ptr noundef nonnull align 8 dereferenceable(32) %sms) #3
  br label %eh.resume

eh.resume:                                        ; preds = %lpad
  %exn = load ptr, ptr %exn.slot, align 8
  %sel = load i32, ptr %ehselector.slot, align 4
  %lpad.val = insertvalue { ptr, i32 } poison, ptr %exn, 0
  %lpad.val2 = insertvalue { ptr, i32 } %lpad.val, i32 %sel, 1
  resume { ptr, i32 } %lpad.val2
}