; Function Attrs: mustprogress uwtable
define hidden void @_ZN3smt12model_finder21process_simple_macrosER10ptr_vectorI10quantifierES4_P11proto_model(ptr noundef nonnull align 8 dereferenceable(128) %this, ptr noundef nonnull align 8 dereferenceable(8) %qs, ptr noundef nonnull align 8 dereferenceable(8) %residue, ptr noundef nonnull %mdl) local_unnamed_addr #3 align 2 personality ptr @__gxx_personality_v0 {
entry:
  %sms = alloca %class.simple_macro_solver, align 8
  %m = getelementptr inbounds i8, ptr %this, i64 8
  %0 = load ptr, ptr %m, align 8
  %m2.i.i = getelementptr inbounds i8, ptr %sms, i64 8
  store ptr %0, ptr %m2.i.i, align 8
  %m_q2info.i.i = getelementptr inbounds i8, ptr %sms, i64 16
  store ptr %this, ptr %m_q2info.i.i, align 8
  %m_model.i.i = getelementptr inbounds i8, ptr %sms, i64 24
  store ptr null, ptr %m_model.i.i, align 8
  store ptr getelementptr inbounds ({ [5 x ptr] }, ptr @_ZTV19simple_macro_solver, i64 0, i32 0, i64 2), ptr %sms, align 8
  call void @_ZN17base_macro_solverclER10model_coreR10ptr_vectorI10quantifierES5_(ptr noundef nonnull align 8 dereferenceable(32) %sms, ptr noundef nonnull align 8 dereferenceable(96) %mdl, ptr noundef nonnull align 8 dereferenceable(8) %qs, ptr noundef nonnull align 8 dereferenceable(8) %residue)
  ret void
}